ccollections
deque
p1
((lp2
S'http://adamdoupe.com/'
p3
aS'http://adamdoupe.com/publications/federated-access-management-sacmat2015.pdf'
p4
aS'http://adamdoupe.com//keys/adam_doupe_pub.gpg'
p5
aS'http://adamdoupe.com//blog'
p6
aS'http://adamdoupe.com//blog/archives'
p7
aS'http://adamdoupe.com//blog/2009/04/03/doing-research/'
p8
aS'http://adamdoupe.com//blog/2009/04/07/enabling-total-dns-on-godaddy/'
p9
aS'http://adamdoupe.com//blog/2009/04/10/two-chicks-at-the-same-time/'
p10
aS'http://adamdoupe.com//blog/2009/05/05/another-fire-in-the-santa-barbara-hills/'
p11
aS'http://adamdoupe.com//blog/2010/10/22/configuring-linux-bridge-to-act-as-a-hub/'
p12
aS'http://adamdoupe.com//blog/2010/10/27/redirecting-a-folder-to-https-with-apaches-config-on-ubuntu/'
p13
aS'http://adamdoupe.com//blog/posts/2'
p14
aS'http://adamdoupe.com//blog/index.html'
p15
aS'http://adamdoupe.com//blog/2010/10/28/compiling-jpcap-on-64-bit-ubuntu-10-dot-10/'
p16
aS'http://adamdoupe.com//blog/2011/01/27/paper-review-saner-composing-static-and-dynamic-analysis-to-validate-sanitization-in-web-applications/'
p17
aS'http://adamdoupe.com//blog/2011/04/20/overview-of-execution-after-redirect-web-application-vulnerabilities/'
p18
aS'http://adamdoupe.com//blog/2013/04/03/some-classic-literature-recommendations/'
p19
aS'http://adamdoupe.com//blog/2013/04/10/picoctf-preparations/'
p20
aS'http://adamdoupe.com//blog/2013/07/16/ssh-to-server-in-same-directory/'
p21
aS'http://adamdoupe.com//blog/2013/09/02/back-that-data-up-a-cautionary-tale/'
p22
aS'http://adamdoupe.com'
p23
aS'http://adamdoupe.com//blog/2013/09/05/dedacota-toward-preventing-server-side-xss-via-automatic-code-and-data-separation/'
p24
aS'http://adamdoupe.com//blog/2013/09/10/agile-in-the-cs-classroom/'
p25
aS'http://adamdoupe.com//blog/2013/09/26/found-stored-xss-in-popular-dots-game/'
p26
aS'http://adamdoupe.com//media'
p27
aS'http://adamdoupe.com//publications'
p28
aS'http://adamdoupe.com//publications/advanced-automated-web-application-vulnerability-analysis-dissertation2014.bib'
p29
aS'http://adamdoupe.com//publications/advanced-automated-web-application-vulnerability-analysis-dissertation2014.pdf'
p30
aS'http://adamdoupe.com//publications/10-years-ictf-3gse2014.bib'
p31
aS'http://adamdoupe.com//publications/10-years-ictf-3gse2014.pdf'
p32
aS'http://adamdoupe.com//publications/black-box-scanners-dimva2010.bib'
p33
aS'http://adamdoupe.com//publications/black-box-scanners-dimva2010.pdf'
p34
aS'http://adamdoupe.com//publications/fear-the-ear-ccs2011.bib'
p35
aS'http://adamdoupe.com//publications/fear-the-ear-ccs2011.pdf'
p36
aS'http://adamdoupe.com//publications/hit-em-where-it-hurts-acsac2011.bib'
p37
aS'http://adamdoupe.com//publications/hit-em-where-it-hurts-acsac2011.pdf'
p38
aS'http://adamdoupe.com//publications/enemy-of-the-state-usenix2012.bib'
p39
aS'http://adamdoupe.com//publications/enemy-of-the-state-usenix2012.pdf'
p40
aS'http://adamdoupe.com//publications/ears-in-the-wild-sac2013.bib'
p41
aS'http://adamdoupe.com//publications/ears-in-the-wild-sac2013.pdf'
p42
aS'http://adamdoupe.com//publications/writing-groups-in-computer-science-research-labs-fie2013.bib'
p43
aS'http://adamdoupe.com//publications/writing-groups-in-computer-science-research-labs-fie2013.pdf'
p44
aS'http://adamdoupe.com//publications/dedacota-ccs2013.bib'
p45
aS'http://adamdoupe.com//publications/dedacota-ccs2013.pdf'
p46
aS'http://adamdoupe.com//publications/do-you-feel-lucky-sac2014.bib'
p47
aS'http://adamdoupe.com//publications/do-you-feel-lucky-sac2014.pdf'
p48
aS'http://adamdoupe.com//publications/federated-access-management-sacmat2015.bib'
p49
aS'http://adamdoupe.com//publications/federated-access-management-sacmat2015.pdf'
p50
aS'http://adamdoupe.com//teaching'
p51
aS'http://adamdoupe.com//teaching/classes/cse591-security-and-vulnerability-analysis-s15'
p52
aS'http://adamdoupe.com//teaching/classes/cse591-security-and-vulnerability-analysis-s15/slides/12-Clickjacking.pptx'
p53
aS'http://adamdoupe.com//teaching/classes/cse591-security-and-vulnerability-analysis-s15/slides/11-Cross-Site-Request-Forgery.pptx'
p54
aS'http://adamdoupe.com//teaching/classes/cse591-security-and-vulnerability-analysis-s15/slides/10-Command-Injection.pptx'
p55
aS'http://adamdoupe.com//teaching/classes/cse591-security-and-vulnerability-analysis-s15/slides/09-Attacking-Authentication-And-Authorization.pptx'
p56
aS'http://adamdoupe.com//teaching/classes/cse591-security-and-vulnerability-analysis-s15/slides/08-Bypassing-Client-Side-Protection.pptx'
p57
aS'http://adamdoupe.com//teaching/classes/cse591-security-and-vulnerability-analysis-s15/slides/07-Hacker-Mindset.pptx'
p58
aS'http://adamdoupe.com//teaching/classes/cse591-security-and-vulnerability-analysis-s15/slides/06-Ethics.pptx'
p59
aS'http://adamdoupe.com//teaching/classes/cse591-security-and-vulnerability-analysis-s15/slides/05-Web-Security-Model.pptx'
p60
aS'http://adamdoupe.com//teaching/classes/cse591-security-and-vulnerability-analysis-s15/slides/04-Modern-Web-Application-Frameworks.pptx'
p61
aS'http://adamdoupe.com//teaching/classes/cse591-security-and-vulnerability-analysis-s15/slides/03-Client-Side-Scripting.pptx'
p62
aS'http://adamdoupe.com//teaching/classes/cse591-security-and-vulnerability-analysis-s15/slides/02-Web-Applications.pptx'
p63
aS'http://adamdoupe.com//teaching/classes/cse591-security-and-vulnerability-analysis-s15/slides/01-The-Web.pptx'
p64
aS'http://adamdoupe.com//teaching/classes/cse591-security-and-vulnerability-analysis-s15/assignment_1.html'
p65
aS'http://adamdoupe.com//teaching/classes/cse591-security-and-vulnerability-analysis-s15/assignment_2.html'
p66
aS'http://adamdoupe.com//teaching/classes/cse591-security-and-vulnerability-analysis-s15/assignment_3.html'
p67
aS'http://adamdoupe.com//teaching/classes/cse591-security-and-vulnerability-analysis-s15/papers.html'
p68
aS'http://adamdoupe.com//teaching/classes/cse591-security-and-vulnerability-analysis-s15/projects.html'
p69
aS'http://adamdoupe.com//teaching/classes/cse591-security-and-vulnerability-analysis-s15/assignments.html'
p70
aS'http://adamdoupe.com//teaching/classes/cse591-security-and-vulnerability-analysis-s15/syllabus.html'
p71
aS'http://adamdoupe.com//service'
p72
aS'http://adamdoupe.com//research'
p73
atRp74
.